target datalayout = "e-m:e-p270:32:32-p271:32:32-p272:64:64-i64:64-i128:128-f80:128-n8:16:32:64-S128"
target triple = "x86_64-pc-linux-gnu"

%struct.cdf_header_t = type { i64, [2 x i64], i16, i16, i16, i16, i16, [10 x i8], i32, i32, [4 x i8], i32, i32, i32, i32, i32, [109 x i32] }
%struct.cdf_info_t = type { i32, ptr, i64 }

; Function Attrs: nounwind uwtable
define internal i64 @cdf_read(ptr noundef %0, i64 noundef %1, ptr noundef %2, i64 noundef %3) #0 {
  %5 = alloca i64, align 8
  %6 = alloca ptr, align 8
  %7 = alloca i64, align 8
  %8 = alloca ptr, align 8
  %9 = alloca i64, align 8
  %10 = alloca i64, align 8
  %11 = alloca i32, align 4
  store ptr %0, ptr %6, align 8, !tbaa !16
  store i64 %1, ptr %7, align 8, !tbaa !14
  store ptr %2, ptr %8, align 8, !tbaa !16
  store i64 %3, ptr %9, align 8, !tbaa !14
  call void @llvm.lifetime.start.p0(i64 8, ptr %10) #13
  %12 = load i64, ptr %7, align 8, !tbaa !14
  %13 = load i64, ptr %9, align 8, !tbaa !14
  %14 = add i64 %12, %13
  store i64 %14, ptr %10, align 8, !tbaa !14
  %15 = load i64, ptr %7, align 8, !tbaa !14
  %16 = load i64, ptr %9, align 8, !tbaa !14
  %17 = add i64 %15, %16
  %18 = load i64, ptr %10, align 8, !tbaa !14
  %19 = icmp ne i64 %17, %18
  br i1 %19, label %20, label %21

20:                                               ; preds = %4
  br label %67

21:                                               ; preds = %4
  %22 = load ptr, ptr %6, align 8, !tbaa !16
  %23 = getelementptr inbounds nuw %struct.cdf_info_t, ptr %22, i32 0, i32 1
  %24 = load ptr, ptr %23, align 8, !tbaa !48
  %25 = icmp ne ptr %24, null
  br i1 %25, label %26, label %41

26:                                               ; preds = %21
  %27 = load ptr, ptr %6, align 8, !tbaa !16
  %28 = getelementptr inbounds nuw %struct.cdf_info_t, ptr %27, i32 0, i32 2
  %29 = load i64, ptr %28, align 8, !tbaa !50
  %30 = load i64, ptr %10, align 8, !tbaa !14
  %31 = icmp uge i64 %29, %30
  br i1 %31, label %32, label %41

32:                                               ; preds = %26
  %33 = load ptr, ptr %8, align 8, !tbaa !16
  %34 = load ptr, ptr %6, align 8, !tbaa !16
  %35 = getelementptr inbounds nuw %struct.cdf_info_t, ptr %34, i32 0, i32 1
  %36 = load ptr, ptr %35, align 8, !tbaa !48
  %37 = load i64, ptr %7, align 8, !tbaa !14
  %38 = getelementptr inbounds i8, ptr %36, i64 %37
  %39 = load i64, ptr %9, align 8, !tbaa !14
  call void @llvm.memcpy.p0.p0.i64(ptr align 1 %33, ptr align 1 %38, i64 %39, i1 false)
  %40 = load i64, ptr %9, align 8, !tbaa !14
  store i64 %40, ptr %5, align 8
  store i32 1, ptr %11, align 4
  br label %69

41:                                               ; preds = %26, %21
  %42 = load ptr, ptr %6, align 8, !tbaa !16
  %43 = getelementptr inbounds nuw %struct.cdf_info_t, ptr %42, i32 0, i32 0
  %44 = load i32, ptr %43, align 8, !tbaa !51
  %45 = icmp eq i32 %44, -1
  br i1 %45, label %46, label %47

46:                                               ; preds = %41
  br label %67

47:                                               ; preds = %41
  %48 = load ptr, ptr %6, align 8, !tbaa !16
  %49 = getelementptr inbounds nuw %struct.cdf_info_t, ptr %48, i32 0, i32 0
  %50 = load i32, ptr %49, align 8, !tbaa !51
  %51 = load i64, ptr %7, align 8, !tbaa !14
  %52 = call i64 @lseek(i32 noundef %50, i64 noundef %51, i32 noundef 0) #13
  %53 = icmp eq i64 %52, -1
  br i1 %53, label %54, label %55

54:                                               ; preds = %47
  store i64 -1, ptr %5, align 8
  store i32 1, ptr %11, align 4
  br label %69

55:                                               ; preds = %47
  %56 = load ptr, ptr %6, align 8, !tbaa !16
  %57 = getelementptr inbounds nuw %struct.cdf_info_t, ptr %56, i32 0, i32 0
  %58 = load i32, ptr %57, align 8, !tbaa !51
  %59 = load ptr, ptr %8, align 8, !tbaa !16
  %60 = load i64, ptr %9, align 8, !tbaa !14
  %61 = call i64 @read(i32 noundef %58, ptr noundef %59, i64 noundef %60)
  %62 = load i64, ptr %9, align 8, !tbaa !14
  %63 = icmp ne i64 %61, %62
  br i1 %63, label %64, label %65

64:                                               ; preds = %55
  store i64 -1, ptr %5, align 8
  store i32 1, ptr %11, align 4
  br label %69

65:                                               ; preds = %55
  %66 = load i64, ptr %9, align 8, !tbaa !14
  store i64 %66, ptr %5, align 8
  store i32 1, ptr %11, align 4
  br label %69

67:                                               ; preds = %46, %20
  %68 = call ptr @__errno_location() #14
  store i32 22, ptr %68, align 4, !tbaa !12
  store i64 -1, ptr %5, align 8
  store i32 1, ptr %11, align 4
  br label %69

69:                                               ; preds = %67, %65, %64, %54, %32
  call void @llvm.lifetime.end.p0(i64 8, ptr %10) #13
  %70 = load i64, ptr %5, align 8
  ret i64 %70
}

; Function Attrs: nounwind uwtable
define hidden i64 @cdf_read_sector(ptr noundef %0, ptr noundef %1, i64 noundef %2, i64 noundef %3, ptr noundef %4, i32 noundef %5) #0 {
  %7 = alloca i64, align 8
  %8 = alloca ptr, align 8
  %9 = alloca ptr, align 8
  %10 = alloca i64, align 8
  %11 = alloca i64, align 8
  %12 = alloca ptr, align 8
  %13 = alloca i32, align 4
  %14 = alloca i64, align 8
  %15 = alloca i64, align 8
  %16 = alloca i32, align 4
  store ptr %0, ptr %8, align 8, !tbaa !16
  store ptr %1, ptr %9, align 8, !tbaa !16
  store i64 %2, ptr %10, align 8, !tbaa !14
  store i64 %3, ptr %11, align 8, !tbaa !14
  store ptr %4, ptr %12, align 8, !tbaa !16
  store i32 %5, ptr %13, align 4, !tbaa !12
  call void @llvm.lifetime.start.p0(i64 8, ptr %14) #13
  %17 = load ptr, ptr %12, align 8, !tbaa !16
  %18 = getelementptr inbounds nuw %struct.cdf_header_t, ptr %17, i32 0, i32 5
  %19 = load i16, ptr %18, align 2, !tbaa !22
  %20 = zext i16 %19 to i32
  %21 = shl i32 1, %20
  %22 = sext i32 %21 to i64
  store i64 %22, ptr %14, align 8, !tbaa !14
  call void @llvm.lifetime.start.p0(i64 8, ptr %15) #13
  %23 = load i64, ptr %14, align 8, !tbaa !14
  %24 = udiv i64 -1, %23
  %25 = load i32, ptr %13, align 4, !tbaa !12
  %26 = sext i32 %25 to i64
  %27 = icmp ult i64 %24, %26
  br i1 %27, label %28, label %29

28:                                               ; preds = %6
  store i64 -1, ptr %7, align 8
  store i32 1, ptr %16, align 4
  br label %55

29:                                               ; preds = %6
  %30 = load ptr, ptr %12, align 8, !tbaa !16
  %31 = getelementptr inbounds nuw %struct.cdf_header_t, ptr %30, i32 0, i32 5
  %32 = load i16, ptr %31, align 2, !tbaa !22
  %33 = zext i16 %32 to i32
  %34 = shl i32 1, %33
  %35 = sext i32 %34 to i64
  %36 = load i32, ptr %13, align 4, !tbaa !12
  %37 = sext i32 %36 to i64
  %38 = load ptr, ptr %12, align 8, !tbaa !16
  %39 = getelementptr inbounds nuw %struct.cdf_header_t, ptr %38, i32 0, i32 5
  %40 = load i16, ptr %39, align 2, !tbaa !22
  %41 = zext i16 %40 to i32
  %42 = shl i32 1, %41
  %43 = sext i32 %42 to i64
  %44 = mul i64 %37, %43
  %45 = add i64 %35, %44
  store i64 %45, ptr %15, align 8, !tbaa !14
  %46 = load ptr, ptr %8, align 8, !tbaa !16
  %47 = load i64, ptr %15, align 8, !tbaa !14
  %48 = load ptr, ptr %9, align 8, !tbaa !16
  %49 = ptrtoint ptr %48 to i64
  %50 = inttoptr i64 %49 to ptr
  %51 = load i64, ptr %10, align 8, !tbaa !14
  %52 = getelementptr inbounds nuw i8, ptr %50, i64 %51
  %53 = load i64, ptr %11, align 8, !tbaa !14
  %54 = call i64 @cdf_read(ptr noundef %46, i64 noundef %47, ptr noundef %52, i64 noundef %53)
  store i64 %54, ptr %7, align 8
  store i32 1, ptr %16, align 4
  br label %55

55:                                               ; preds = %29, %28
  call void @llvm.lifetime.end.p0(i64 8, ptr %15) #13
  call void @llvm.lifetime.end.p0(i64 8, ptr %14) #13
  %56 = load i64, ptr %7, align 8
  ret i64 %56
}