; Function Attrs: nounwind uwtable
define hidden noundef i64 @cdf_read_sector(ptr noundef readonly captures(none) %0, ptr noundef captures(none) %1, i64 noundef %2, i64 noundef %3, ptr noundef readonly captures(none) %4, i32 noundef %5) local_unnamed_addr #7 {
  %7 = getelementptr inbounds nuw i8, ptr %4, i64 30
  %8 = load i16, ptr %7, align 2, !tbaa !19
  %9 = zext nneg i16 %8 to i32
  %10 = shl nuw i32 1, %9
  %11 = sext i32 %10 to i64
  %12 = sext i32 %5 to i64
  %mul = tail call { i64, i1 } @llvm.umul.with.overflow.i64(i64 %11, i64 %12)
  %mul.ov = extractvalue { i64, i1 } %mul, 1
  br i1 %mul.ov, label %cdf_read.exit, label %13

13:                                               ; preds = %6
  %14 = add nsw i64 %12, 1
  %15 = mul nsw i64 %14, %11
  %16 = getelementptr inbounds nuw i8, ptr %1, i64 %2
  %17 = getelementptr inbounds nuw i8, ptr %0, i64 8
  %18 = load ptr, ptr %17, align 8, !tbaa !10
  %.not.i = icmp eq ptr %18, null
  br i1 %.not.i, label %25, label %19

19:                                               ; preds = %13
  %20 = add i64 %15, %3
  %21 = getelementptr inbounds nuw i8, ptr %0, i64 16
  %22 = load i64, ptr %21, align 8, !tbaa !14
  %.not24.i = icmp ult i64 %22, %20
  br i1 %.not24.i, label %25, label %23

23:                                               ; preds = %19
  %24 = getelementptr inbounds i8, ptr %18, i64 %15
  tail call void @llvm.memcpy.p0.p0.i64(ptr align 1 %16, ptr nonnull align 1 %24, i64 %3, i1 false)
  br label %cdf_read.exit

25:                                               ; preds = %19, %13
  %26 = load i32, ptr %0, align 8, !tbaa !15
  %27 = icmp eq i32 %26, -1
  br i1 %27, label %34, label %28

28:                                               ; preds = %25
  %29 = tail call i64 @lseek(i32 noundef %26, i64 noundef range(i64 -4611686018427387904, 4611686020574871552) %15, i32 noundef 0) #21
  %30 = icmp eq i64 %29, -1
  br i1 %30, label %cdf_read.exit, label %31

31:                                               ; preds = %28
  %32 = load i32, ptr %0, align 8, !tbaa !15
  %33 = tail call i64 @read(i32 noundef %32, ptr noundef %16, i64 noundef %3) #21
  %.not25.i = icmp eq i64 %33, %3
  %..i = select i1 %.not25.i, i64 %3, i64 -1
  br label %cdf_read.exit

34:                                               ; preds = %25
  %35 = tail call ptr @__errno_location() #22
  store i32 22, ptr %35, align 4, !tbaa !21
  br label %cdf_read.exit

cdf_read.exit:                                    ; preds = %34, %31, %28, %23, %6
  %.0 = phi i64 [ -1, %6 ], [ -1, %34 ], [ %3, %23 ], [ -1, %28 ], [ %..i, %31 ]
  ret i64 %.0
}